target datalayout = "e-m:e-p270:32:32-p271:32:32-p272:64:64-i64:64-i128:128-f80:128-n8:16:32:64-S128"
target triple = "x86_64-pc-linux-gnu"

; Function Attrs: mustprogress nounwind uwtable
define dso_local i32 @computeCRC(ptr noundef %0, i32 noundef %1, i32 noundef %2) #0 {
  %4 = alloca ptr, align 8
  %5 = alloca i32, align 4
  %6 = alloca i32, align 4
  %7 = alloca i32, align 4
  %8 = alloca i32, align 4
  %9 = alloca i32, align 4
  %10 = alloca [256 x i32], align 16
  %11 = alloca i32, align 4
  %12 = alloca i32, align 4
  %13 = alloca i32, align 4
  store ptr %0, ptr %4, align 8, !tbaa !4
  store i32 %1, ptr %5, align 4, !tbaa !9
  store i32 %2, ptr %6, align 4, !tbaa !9
  call void @llvm.lifetime.start.p0(i64 4, ptr %7) #12
  call void @llvm.lifetime.start.p0(i64 4, ptr %8) #12
  call void @llvm.lifetime.start.p0(i64 4, ptr %9) #12
  call void @llvm.lifetime.start.p0(i64 1024, ptr %10) #12
  call void @llvm.lifetime.start.p0(i64 4, ptr %11) #12
  store i32 0, ptr %11, align 4, !tbaa !9
  call void @llvm.lifetime.start.p0(i64 4, ptr %12) #12
  store i32 0, ptr %12, align 4, !tbaa !9
  call void @llvm.lifetime.start.p0(i64 4, ptr %13) #12
  store i32 0, ptr %13, align 4, !tbaa !9
  store i32 0, ptr %11, align 4, !tbaa !9
  br label %14

14:                                               ; preds = %42, %3
  %15 = load i32, ptr %11, align 4, !tbaa !9
  %16 = icmp sle i32 %15, 255
  br i1 %16, label %17, label %45

17:                                               ; preds = %14
  %18 = load i32, ptr %11, align 4, !tbaa !9
  store i32 %18, ptr %13, align 4, !tbaa !9
  store i32 8, ptr %12, align 4, !tbaa !9
  br label %19

19:                                               ; preds = %34, %17
  %20 = load i32, ptr %12, align 4, !tbaa !9
  %21 = icmp sgt i32 %20, 0
  br i1 %21, label %22, label %37

22:                                               ; preds = %19
  %23 = load i32, ptr %13, align 4, !tbaa !9
  %24 = and i32 %23, 1
  %25 = icmp eq i32 %24, 1
  br i1 %25, label %26, label %30

26:                                               ; preds = %22
  %27 = load i32, ptr %13, align 4, !tbaa !9
  %28 = lshr i32 %27, 1
  %29 = xor i32 %28, -306674912
  store i32 %29, ptr %13, align 4, !tbaa !9
  br label %33

30:                                               ; preds = %22
  %31 = load i32, ptr %13, align 4, !tbaa !9
  %32 = lshr i32 %31, 1
  store i32 %32, ptr %13, align 4, !tbaa !9
  br label %33

33:                                               ; preds = %30, %26
  br label %34

34:                                               ; preds = %33
  %35 = load i32, ptr %12, align 4, !tbaa !9
  %36 = add nsw i32 %35, -1
  store i32 %36, ptr %12, align 4, !tbaa !9
  br label %19, !llvm.loop !11

37:                                               ; preds = %19
  %38 = load i32, ptr %13, align 4, !tbaa !9
  %39 = load i32, ptr %11, align 4, !tbaa !9
  %40 = sext i32 %39 to i64
  %41 = getelementptr inbounds [256 x i32], ptr %10, i64 0, i64 %40
  store i32 %38, ptr %41, align 4, !tbaa !9
  br label %42

42:                                               ; preds = %37
  %43 = load i32, ptr %11, align 4, !tbaa !9
  %44 = add nsw i32 %43, 1
  store i32 %44, ptr %11, align 4, !tbaa !9
  br label %14, !llvm.loop !13

45:                                               ; preds = %14
  %46 = load i32, ptr %6, align 4, !tbaa !9
  store i32 %46, ptr %7, align 4, !tbaa !9
  br label %47

47:                                               ; preds = %51, %45
  %48 = load i32, ptr %5, align 4, !tbaa !9
  %49 = add i32 %48, -1
  store i32 %49, ptr %5, align 4, !tbaa !9
  %50 = icmp ne i32 %48, 0
  br i1 %50, label %51, label %68

51:                                               ; preds = %47
  %52 = load i32, ptr %7, align 4, !tbaa !9
  %53 = lshr i32 %52, 8
  store i32 %53, ptr %8, align 4, !tbaa !9
  %54 = load i32, ptr %7, align 4, !tbaa !9
  %55 = load ptr, ptr %4, align 8, !tbaa !4
  %56 = load i8, ptr %55, align 1, !tbaa !14
  %57 = sext i8 %56 to i32
  %58 = xor i32 %54, %57
  %59 = and i32 %58, 255
  %60 = sext i32 %59 to i64
  %61 = getelementptr inbounds [256 x i32], ptr %10, i64 0, i64 %60
  %62 = load i32, ptr %61, align 4, !tbaa !9
  store i32 %62, ptr %9, align 4, !tbaa !9
  %63 = load i32, ptr %8, align 4, !tbaa !9
  %64 = load i32, ptr %9, align 4, !tbaa !9
  %65 = xor i32 %63, %64
  store i32 %65, ptr %7, align 4, !tbaa !9
  %66 = load ptr, ptr %4, align 8, !tbaa !4
  %67 = getelementptr inbounds nuw i8, ptr %66, i32 1
  store ptr %67, ptr %4, align 8, !tbaa !4
  br label %47, !llvm.loop !15

68:                                               ; preds = %47
  %69 = load i32, ptr %7, align 4, !tbaa !9
  call void @llvm.lifetime.end.p0(i64 4, ptr %13) #12
  call void @llvm.lifetime.end.p0(i64 4, ptr %12) #12
  call void @llvm.lifetime.end.p0(i64 4, ptr %11) #12
  call void @llvm.lifetime.end.p0(i64 1024, ptr %10) #12
  call void @llvm.lifetime.end.p0(i64 4, ptr %9) #12
  call void @llvm.lifetime.end.p0(i64 4, ptr %8) #12
  call void @llvm.lifetime.end.p0(i64 4, ptr %7) #12
  ret i32 %69
}