; Function Attrs: mustprogress nofree norecurse nosync nounwind willreturn memory(argmem: read) uwtable
define dso_local i32 @computeCRC(ptr noundef readonly captures(none) %0, i32 noundef %1, i32 noundef %2) local_unnamed_addr #0 {
  %4 = alloca [256 x i32], align 16
  call void @llvm.lifetime.start.p0(i64 1024, ptr nonnull %4) #13
  br label %.preheader24

.preheader24:                                     ; preds = %3, %12
  %indvars.iv = phi i64 [ 0, %3 ], [ %indvars.iv.next, %12 ]
  %5 = trunc nuw nsw i64 %indvars.iv to i32
  br label %6

.preheader:                                       ; preds = %12
  %.not28 = icmp eq i32 %1, 0
  br i1 %.not28, label %._crit_edge, label %.lr.ph

6:                                                ; preds = %.preheader24, %6
  %.026 = phi i32 [ %5, %.preheader24 ], [ %.1, %6 ]
  %.01825 = phi i32 [ 8, %.preheader24 ], [ %10, %6 ]
  %7 = and i32 %.026, 1
  %.not23 = icmp eq i32 %7, 0
  %8 = lshr i32 %.026, 1
  %9 = xor i32 %8, -306674912
  %.1 = select i1 %.not23, i32 %8, i32 %9
  %10 = add nsw i32 %.01825, -1
  %11 = icmp ugt i32 %.01825, 1
  br i1 %11, label %6, label %12, !llvm.loop !4

12:                                               ; preds = %6
  %13 = getelementptr inbounds nuw [256 x i32], ptr %4, i64 0, i64 %indvars.iv
  store i32 %.1, ptr %13, align 4, !tbaa !6
  %indvars.iv.next = add nuw nsw i64 %indvars.iv, 1
  %exitcond.not = icmp eq i64 %indvars.iv.next, 256
  br i1 %exitcond.not, label %.preheader, label %.preheader24, !llvm.loop !10

.lr.ph:                                           ; preds = %.preheader, %.lr.ph
  %.02031 = phi ptr [ %21, %.lr.ph ], [ %0, %.preheader ]
  %.02130 = phi i32 [ %14, %.lr.ph ], [ %1, %.preheader ]
  %.02229 = phi i32 [ %20, %.lr.ph ], [ %2, %.preheader ]
  %14 = add i32 %.02130, -1
  %15 = lshr i32 %.02229, 8
  %16 = load i8, ptr %.02031, align 1, !tbaa !11
  %.022.tr = trunc i32 %.02229 to i8
  %.narrow = xor i8 %16, %.022.tr
  %17 = zext i8 %.narrow to i64
  %18 = getelementptr inbounds nuw [256 x i32], ptr %4, i64 0, i64 %17
  %19 = load i32, ptr %18, align 4, !tbaa !6
  %20 = xor i32 %19, %15
  %21 = getelementptr inbounds nuw i8, ptr %.02031, i64 1
  %.not = icmp eq i32 %14, 0
  br i1 %.not, label %._crit_edge, label %.lr.ph, !llvm.loop !12

._crit_edge:                                      ; preds = %.lr.ph, %.preheader
  %.022.lcssa = phi i32 [ %2, %.preheader ], [ %20, %.lr.ph ]
  call void @llvm.lifetime.end.p0(i64 1024, ptr nonnull %4) #13
  ret i32 %.022.lcssa
}